(i__main__
LogFile
p0
(dp1
S'_installed_files'
p2
(dp3
S'../PMTCalibSvc/python'
p4
(dp5
S'../../../PMTCalibSvc/python/PMTCalibSvc/__init__.py'
p6
S'../../InstallArea/python/PMTCalibSvc/__init__.py'
p7
ssS'../../../PMTCalibSvc/amd64_linux26/libPMTCalibSvc.so'
p8
S'../../InstallArea/amd64_linux26/lib/libPMTCalibSvc.so'
p9
ssb.PMTCalibSvc/PMTCalibSvc.h'
p11
ssS'../../../PMTCalibSvc/amd64_linux26/libPMTCalibSvc.so'
p12
S'../../InstallArea/amd64_linux26/lib/libPMTCalibSvc.so'
p13
ssb.